; Function Attrs: nounwind uwtable
define range(i32 -1, 1) i32 @H5Sset_extent_none(i64 noundef %0) local_unnamed_addr #0 {
  %2 = alloca %struct.H5CX_node_t, align 8
  call void @llvm.lifetime.start.p0(i64 480, ptr nonnull %2) #10
  call void @llvm.memset.p0.i64(ptr noundef nonnull align 8 dereferenceable(480) %2, i8 0, i64 480, i1 false)
  %3 = load i8, ptr @H5_libinit_g, align 1, !tbaa !3, !range !7, !noundef !8
  %4 = trunc nuw i8 %3 to i1
  %5 = load i8, ptr @H5_libterm_g, align 1, !range !7
  %6 = trunc nuw i8 %5 to i1
  %7 = select i1 %4, i1 true, i1 %6
  br i1 %7, label %15, label %8, !prof !9

8:                                                ; preds = %1
  %9 = tail call i32 @H5_init_library() #10
  %10 = icmp slt i32 %9, 0
  br i1 %10, label %11, label %._crit_edge, !prof !31

._crit_edge:                                      ; preds = %8
  %.pre = load i8, ptr @H5_libterm_g, align 1, !range !7
  br label %15

11:                                               ; preds = %8
  %12 = load i64, ptr @H5E_FUNC_g, align 8, !tbaa !10
  %13 = load i64, ptr @H5E_CANTINIT_g, align 8, !tbaa !10
  %14 = tail call i32 (ptr, ptr, i32, i64, i64, ptr, ...) @H5E_printf_stack(ptr noundef nonnull @.str.3, ptr noundef nonnull @__func__.H5Sset_extent_none, i32 noundef 1736, i64 noundef %12, i64 noundef %13, ptr noundef nonnull @.str.11) #10
  br label %.thread18

15:                                               ; preds = %._crit_edge, %1
  %16 = phi i8 [ %.pre, %._crit_edge ], [ %5, %1 ]
  %17 = load i8, ptr @H5S_init_g, align 1, !tbaa !3, !range !7, !noundef !8
  %18 = trunc nuw i8 %17 to i1
  %19 = trunc nuw i8 %16 to i1
  %20 = select i1 %18, i1 true, i1 %19
  br i1 %20, label %28, label %21, !prof !9

21:                                               ; preds = %15
  store i8 1, ptr @H5S_init_g, align 1, !tbaa !3
  %22 = tail call i32 @H5S__init_package()
  %23 = icmp slt i32 %22, 0
  br i1 %23, label %24, label %28, !prof !33

24:                                               ; preds = %21
  store i8 0, ptr @H5S_init_g, align 1, !tbaa !3
  %25 = load i64, ptr @H5E_FUNC_g, align 8, !tbaa !10
  %26 = load i64, ptr @H5E_CANTINIT_g, align 8, !tbaa !10
  %27 = tail call i32 (ptr, ptr, i32, i64, i64, ptr, ...) @H5E_printf_stack(ptr noundef nonnull @.str.3, ptr noundef nonnull @__func__.H5Sset_extent_none, i32 noundef 1736, i64 noundef %25, i64 noundef %26, ptr noundef nonnull @.str.4) #10
  br label %.thread18

28:                                               ; preds = %15, %21
  %29 = call i32 @H5CX_push(ptr noundef nonnull %2) #10
  %30 = icmp slt i32 %29, 0
  br i1 %30, label %31, label %35, !prof !31

31:                                               ; preds = %28
  %32 = load i64, ptr @H5E_FUNC_g, align 8, !tbaa !10
  %33 = load i64, ptr @H5E_CANTSET_g, align 8, !tbaa !10
  %34 = call i32 (ptr, ptr, i32, i64, i64, ptr, ...) @H5E_printf_stack(ptr noundef nonnull @.str.3, ptr noundef nonnull @__func__.H5Sset_extent_none, i32 noundef 1736, i64 noundef %32, i64 noundef %33, ptr noundef nonnull @.str.12) #10
  br label %.thread18

35:                                               ; preds = %28
  %36 = call i32 @H5E_clear_stack() #10
  %37 = call ptr @H5I_object_verify(i64 noundef %0, i32 noundef 4) #10
  %38 = icmp eq ptr %37, null
  br i1 %38, label %.thread23, label %43, !prof !34

.thread23:                                        ; preds = %35
  %39 = load i64, ptr @H5E_ID_g, align 8, !tbaa !10
  %40 = load i64, ptr @H5E_BADID_g, align 8, !tbaa !10
  %41 = call i32 (ptr, ptr, i32, i64, i64, ptr, ...) @H5E_printf_stack(ptr noundef nonnull @.str.3, ptr noundef nonnull @__func__.H5Sset_extent_none, i32 noundef 1740, i64 noundef %39, i64 noundef %40, ptr noundef nonnull @.str.18) #10
  %42 = call i32 @H5CX_pop(i1 noundef zeroext true) #10
  br label %.thread18

43:                                               ; preds = %35
  %44 = load i8, ptr @H5S_init_g, align 1, !tbaa !3, !range !7, !noundef !8
  %45 = trunc nuw i8 %44 to i1
  %46 = load i8, ptr @H5_libterm_g, align 1, !range !7
  %47 = trunc nuw i8 %46 to i1
  %48 = xor i1 %47, true
  %49 = select i1 %45, i1 true, i1 %48
  br i1 %49, label %50, label %67, !prof !9

50:                                               ; preds = %43
  %51 = getelementptr inbounds nuw i8, ptr %37, i64 40
  %52 = load i32, ptr %51, align 8, !tbaa !26
  %53 = icmp eq i32 %52, 1
  br i1 %53, label %54, label %64

54:                                               ; preds = %50
  %55 = getelementptr inbounds nuw i8, ptr %37, i64 64
  %56 = load ptr, ptr %55, align 8, !tbaa !27
  %.not.i = icmp eq ptr %56, null
  br i1 %.not.i, label %59, label %57

57:                                               ; preds = %54
  %58 = call ptr @H5FL_arr_free(ptr noundef nonnull @H5_hsize_t_arr_free_list, ptr noundef nonnull %56) #10
  store ptr %58, ptr %55, align 8, !tbaa !27
  br label %59

59:                                               ; preds = %57, %54
  %60 = getelementptr inbounds nuw i8, ptr %37, i64 72
  %61 = load ptr, ptr %60, align 8, !tbaa !28
  %.not10.i = icmp eq ptr %61, null
  br i1 %.not10.i, label %64, label %62

62:                                               ; preds = %59
  %63 = call ptr @H5FL_arr_free(ptr noundef nonnull @H5_hsize_t_arr_free_list, ptr noundef nonnull %61) #10
  store ptr %63, ptr %60, align 8, !tbaa !28
  br label %64

64:                                               ; preds = %62, %59, %50
  %65 = getelementptr inbounds nuw i8, ptr %37, i64 56
  store i32 0, ptr %65, align 8, !tbaa !29
  %66 = getelementptr inbounds nuw i8, ptr %37, i64 48
  store i64 0, ptr %66, align 8, !tbaa !30
  br label %67

67:                                               ; preds = %64, %43
  %68 = getelementptr inbounds nuw i8, ptr %37, i64 40
  store i32 2, ptr %68, align 8, !tbaa !13
  %69 = call i32 @H5CX_pop(i1 noundef zeroext true) #10
  br label %71

.thread18:                                        ; preds = %11, %24, %31, %.thread23
  %70 = call i32 @H5E_dump_api_stack() #10
  br label %71

71:                                               ; preds = %67, %.thread18
  %.0111621 = phi i32 [ -1, %.thread18 ], [ 0, %67 ]
  call void @llvm.lifetime.end.p0(i64 480, ptr nonnull %2) #10
  ret i32 %.0111621
}